(dp0
F2.125
F0.10250424500580502
sF2.0
F0.10751290984259519
sF3.0
F0.10106806196650028
sF2.95
F0.08607102516841197
sF2.2
F0.10436176394297231
sF2.3864
F0.09704255295126457
sF2.15
F0.10920582406705981
sF3.02
F0.09421405031972539
sF2.9
F0.07617288570590869
sF2.6464
F0.0734254957556279
sF2.396
F0.09361135924139588
sF2.1
F0.10219371107280488
sF2.3094
F0.10003470148018821
sF2.05
F0.10922962533746625
sF2.175
F0.10610416409609086
sF2.2324
F0.10251237562724712
sF2.981
F0.08900604130482884
sF3.08
F0.10063571918912453
sF2.6444
F0.07785464057141071
s.